ARM GAS  /tmp/ccpJ3D2E.s 			page 1


   1              		.cpu cortex-m3
   2              		.eabi_attribute 20, 1
   3              		.eabi_attribute 21, 1
   4              		.eabi_attribute 23, 3
   5              		.eabi_attribute 24, 1
   6              		.eabi_attribute 25, 1
   7              		.eabi_attribute 26, 1
   8              		.eabi_attribute 30, 1
   9              		.eabi_attribute 34, 1
  10              		.eabi_attribute 18, 4
  11              		.file	"oled.c"
  12              		.text
  13              	.Ltext0:
  14              		.cfi_sections	.debug_frame
  15              		.section	.text.write_cmd_oled,"ax",%progbits
  16              		.align	1
  17              		.global	write_cmd_oled
  18              		.syntax unified
  19              		.thumb
  20              		.thumb_func
  21              		.fpu softvfp
  23              	write_cmd_oled:
  24              	.LFB65:
  25              		.file 1 "Core/Src/oled.c"
   1:Core/Src/oled.c **** #include "oled.h"
   2:Core/Src/oled.c **** 
   3:Core/Src/oled.c **** 
   4:Core/Src/oled.c **** void write_cmd_oled(uint8_t cmd)
   5:Core/Src/oled.c **** {
  26              		.loc 1 5 0
  27              		.cfi_startproc
  28              		@ args = 0, pretend = 0, frame = 8
  29              		@ frame_needed = 0, uses_anonymous_args = 0
  30              	.LVL0:
  31 0000 00B5     		push	{lr}
  32              	.LCFI0:
  33              		.cfi_def_cfa_offset 4
  34              		.cfi_offset 14, -4
  35 0002 87B0     		sub	sp, sp, #28
  36              	.LCFI1:
  37              		.cfi_def_cfa_offset 32
  38 0004 06AA     		add	r2, sp, #24
  39 0006 02F8010D 		strb	r0, [r2, #-1]!
   6:Core/Src/oled.c ****     //Send command one byte at at time
   7:Core/Src/oled.c ****     HAL_I2C_Mem_Write(&hi2c1,OLED_ADDR, CMD_ADDR, 1, &cmd, 1, 100);
  40              		.loc 1 7 0
  41 000a 6423     		movs	r3, #100
  42 000c 0293     		str	r3, [sp, #8]
  43 000e 0123     		movs	r3, #1
  44 0010 0193     		str	r3, [sp, #4]
  45 0012 0092     		str	r2, [sp]
  46 0014 0022     		movs	r2, #0
  47 0016 7821     		movs	r1, #120
  48 0018 0248     		ldr	r0, .L3
  49              	.LVL1:
  50 001a FFF7FEFF 		bl	HAL_I2C_Mem_Write
  51              	.LVL2:
ARM GAS  /tmp/ccpJ3D2E.s 			page 2


   8:Core/Src/oled.c **** }
  52              		.loc 1 8 0
  53 001e 07B0     		add	sp, sp, #28
  54              	.LCFI2:
  55              		.cfi_def_cfa_offset 4
  56              		@ sp needed
  57 0020 5DF804FB 		ldr	pc, [sp], #4
  58              	.L4:
  59              		.align	2
  60              	.L3:
  61 0024 00000000 		.word	hi2c1
  62              		.cfi_endproc
  63              	.LFE65:
  65              		.section	.text.write_data_oled,"ax",%progbits
  66              		.align	1
  67              		.global	write_data_oled
  68              		.syntax unified
  69              		.thumb
  70              		.thumb_func
  71              		.fpu softvfp
  73              	write_data_oled:
  74              	.LFB66:
   9:Core/Src/oled.c **** 
  10:Core/Src/oled.c **** void write_data_oled(uint8_t* dataBuffer, size_t dataSize)
  11:Core/Src/oled.c **** {
  75              		.loc 1 11 0
  76              		.cfi_startproc
  77              		@ args = 0, pretend = 0, frame = 0
  78              		@ frame_needed = 0, uses_anonymous_args = 0
  79              	.LVL3:
  80 0000 00B5     		push	{lr}
  81              	.LCFI3:
  82              		.cfi_def_cfa_offset 4
  83              		.cfi_offset 14, -4
  84 0002 85B0     		sub	sp, sp, #20
  85              	.LCFI4:
  86              		.cfi_def_cfa_offset 24
  12:Core/Src/oled.c ****     //Send command one byte at at time
  13:Core/Src/oled.c ****     HAL_I2C_Mem_Write(&hi2c1,OLED_ADDR, DATA_ADDR, 1, dataBuffer, dataSize, 100);
  87              		.loc 1 13 0
  88 0004 6423     		movs	r3, #100
  89 0006 0293     		str	r3, [sp, #8]
  90 0008 89B2     		uxth	r1, r1
  91              	.LVL4:
  92 000a 0191     		str	r1, [sp, #4]
  93 000c 0090     		str	r0, [sp]
  94 000e 0123     		movs	r3, #1
  95 0010 4022     		movs	r2, #64
  96 0012 7821     		movs	r1, #120
  97 0014 0248     		ldr	r0, .L7
  98              	.LVL5:
  99 0016 FFF7FEFF 		bl	HAL_I2C_Mem_Write
 100              	.LVL6:
  14:Core/Src/oled.c **** }
 101              		.loc 1 14 0
 102 001a 05B0     		add	sp, sp, #20
 103              	.LCFI5:
ARM GAS  /tmp/ccpJ3D2E.s 			page 3


 104              		.cfi_def_cfa_offset 4
 105              		@ sp needed
 106 001c 5DF804FB 		ldr	pc, [sp], #4
 107              	.L8:
 108              		.align	2
 109              	.L7:
 110 0020 00000000 		.word	hi2c1
 111              		.cfi_endproc
 112              	.LFE66:
 114              		.section	.text.initOled,"ax",%progbits
 115              		.align	1
 116              		.global	initOled
 117              		.syntax unified
 118              		.thumb
 119              		.thumb_func
 120              		.fpu softvfp
 122              	initOled:
 123              	.LFB67:
  15:Core/Src/oled.c **** 
  16:Core/Src/oled.c **** void initOled()
  17:Core/Src/oled.c **** {
 124              		.loc 1 17 0
 125              		.cfi_startproc
 126              		@ args = 0, pretend = 0, frame = 0
 127              		@ frame_needed = 0, uses_anonymous_args = 0
 128 0000 08B5     		push	{r3, lr}
 129              	.LCFI6:
 130              		.cfi_def_cfa_offset 8
 131              		.cfi_offset 3, -8
 132              		.cfi_offset 14, -4
 133              	.LVL7:
  18:Core/Src/oled.c ****   
  19:Core/Src/oled.c ****   // For 32 lines
  20:Core/Src/oled.c ****   //  uint8_t mux_lines = 0x1f;
  21:Core/Src/oled.c ****   //  uint8_t com_conf = 0x02;
  22:Core/Src/oled.c ****   // For 64 lines
  23:Core/Src/oled.c ****    uint8_t mux_lines = 0x3f;
  24:Core/Src/oled.c ****    uint8_t com_conf = 0x12;
  25:Core/Src/oled.c **** 
  26:Core/Src/oled.c ****   
  27:Core/Src/oled.c ****   uint8_t turn_on = 0xAF;
  28:Core/Src/oled.c ****   uint8_t turn_off = 0xAE;
  29:Core/Src/oled.c ****   write_cmd_oled(turn_off);
 134              		.loc 1 29 0
 135 0002 AE20     		movs	r0, #174
 136 0004 FFF7FEFF 		bl	write_cmd_oled
 137              	.LVL8:
  30:Core/Src/oled.c ****   //Set Memory addressing type
  31:Core/Src/oled.c ****   write_cmd_oled(0x20);
 138              		.loc 1 31 0
 139 0008 2020     		movs	r0, #32
 140 000a FFF7FEFF 		bl	write_cmd_oled
 141              	.LVL9:
  32:Core/Src/oled.c ****   write_cmd_oled(0x00);
 142              		.loc 1 32 0
 143 000e 0020     		movs	r0, #0
 144 0010 FFF7FEFF 		bl	write_cmd_oled
ARM GAS  /tmp/ccpJ3D2E.s 			page 4


 145              	.LVL10:
  33:Core/Src/oled.c ****   //Set memory page start 
  34:Core/Src/oled.c ****   write_cmd_oled(0xB0);
 146              		.loc 1 34 0
 147 0014 B020     		movs	r0, #176
 148 0016 FFF7FEFF 		bl	write_cmd_oled
 149              	.LVL11:
  35:Core/Src/oled.c ****   //Mirroring
  36:Core/Src/oled.c ****   write_cmd_oled(0xC8);
 150              		.loc 1 36 0
 151 001a C820     		movs	r0, #200
 152 001c FFF7FEFF 		bl	write_cmd_oled
 153              	.LVL12:
  37:Core/Src/oled.c ****   write_cmd_oled(0xa1);
 154              		.loc 1 37 0
 155 0020 A120     		movs	r0, #161
 156 0022 FFF7FEFF 		bl	write_cmd_oled
 157              	.LVL13:
  38:Core/Src/oled.c ****   
  39:Core/Src/oled.c ****   //set columna low and high addr
  40:Core/Src/oled.c ****   write_cmd_oled(0x00);
 158              		.loc 1 40 0
 159 0026 0020     		movs	r0, #0
 160 0028 FFF7FEFF 		bl	write_cmd_oled
 161              	.LVL14:
  41:Core/Src/oled.c ****   write_cmd_oled(0x10);
 162              		.loc 1 41 0
 163 002c 1020     		movs	r0, #16
 164 002e FFF7FEFF 		bl	write_cmd_oled
 165              	.LVL15:
  42:Core/Src/oled.c ****   //Display start line : 0 -63 40 for 0
  43:Core/Src/oled.c ****   write_cmd_oled(0x40);
 166              		.loc 1 43 0
 167 0032 4020     		movs	r0, #64
 168 0034 FFF7FEFF 		bl	write_cmd_oled
 169              	.LVL16:
  44:Core/Src/oled.c ****   //Contrast 
  45:Core/Src/oled.c ****   write_cmd_oled(0x81);
 170              		.loc 1 45 0
 171 0038 8120     		movs	r0, #129
 172 003a FFF7FEFF 		bl	write_cmd_oled
 173              	.LVL17:
  46:Core/Src/oled.c ****   write_cmd_oled(0xFF);
 174              		.loc 1 46 0
 175 003e FF20     		movs	r0, #255
 176 0040 FFF7FEFF 		bl	write_cmd_oled
 177              	.LVL18:
  47:Core/Src/oled.c ****   //Set mux
  48:Core/Src/oled.c ****   write_cmd_oled(0xa8);
 178              		.loc 1 48 0
 179 0044 A820     		movs	r0, #168
 180 0046 FFF7FEFF 		bl	write_cmd_oled
 181              	.LVL19:
  49:Core/Src/oled.c ****   write_cmd_oled(mux_lines);
 182              		.loc 1 49 0
 183 004a 3F20     		movs	r0, #63
 184 004c FFF7FEFF 		bl	write_cmd_oled
ARM GAS  /tmp/ccpJ3D2E.s 			page 5


 185              	.LVL20:
  50:Core/Src/oled.c ****   //Follow RAM
  51:Core/Src/oled.c ****   write_cmd_oled(0xA4);
 186              		.loc 1 51 0
 187 0050 A420     		movs	r0, #164
 188 0052 FFF7FEFF 		bl	write_cmd_oled
 189              	.LVL21:
  52:Core/Src/oled.c ****   //No offset 
  53:Core/Src/oled.c ****   write_cmd_oled(0xD3);
 190              		.loc 1 53 0
 191 0056 D320     		movs	r0, #211
 192 0058 FFF7FEFF 		bl	write_cmd_oled
 193              	.LVL22:
  54:Core/Src/oled.c ****   write_cmd_oled(0x00);
 194              		.loc 1 54 0
 195 005c 0020     		movs	r0, #0
 196 005e FFF7FEFF 		bl	write_cmd_oled
 197              	.LVL23:
  55:Core/Src/oled.c **** 
  56:Core/Src/oled.c ****   //timing
  57:Core/Src/oled.c ****   //OScilattor freq
  58:Core/Src/oled.c ****   write_cmd_oled(0xD5);
 198              		.loc 1 58 0
 199 0062 D520     		movs	r0, #213
 200 0064 FFF7FEFF 		bl	write_cmd_oled
 201              	.LVL24:
  59:Core/Src/oled.c ****   write_cmd_oled(0xF0);
 202              		.loc 1 59 0
 203 0068 F020     		movs	r0, #240
 204 006a FFF7FEFF 		bl	write_cmd_oled
 205              	.LVL25:
  60:Core/Src/oled.c ****   //Pre-charge
  61:Core/Src/oled.c ****   write_cmd_oled(0xD9);
 206              		.loc 1 61 0
 207 006e D920     		movs	r0, #217
 208 0070 FFF7FEFF 		bl	write_cmd_oled
 209              	.LVL26:
  62:Core/Src/oled.c ****   write_cmd_oled(0x22);
 210              		.loc 1 62 0
 211 0074 2220     		movs	r0, #34
 212 0076 FFF7FEFF 		bl	write_cmd_oled
 213              	.LVL27:
  63:Core/Src/oled.c ****   //Com pins
  64:Core/Src/oled.c ****   write_cmd_oled(0xDA);
 214              		.loc 1 64 0
 215 007a DA20     		movs	r0, #218
 216 007c FFF7FEFF 		bl	write_cmd_oled
 217              	.LVL28:
  65:Core/Src/oled.c ****   write_cmd_oled(com_conf);
 218              		.loc 1 65 0
 219 0080 1220     		movs	r0, #18
 220 0082 FFF7FEFF 		bl	write_cmd_oled
 221              	.LVL29:
  66:Core/Src/oled.c **** 
  67:Core/Src/oled.c ****   //Turn on
  68:Core/Src/oled.c ****   //Vcomh
  69:Core/Src/oled.c ****   write_cmd_oled(0xDB);
ARM GAS  /tmp/ccpJ3D2E.s 			page 6


 222              		.loc 1 69 0
 223 0086 DB20     		movs	r0, #219
 224 0088 FFF7FEFF 		bl	write_cmd_oled
 225              	.LVL30:
  70:Core/Src/oled.c ****   write_cmd_oled(0x20);
 226              		.loc 1 70 0
 227 008c 2020     		movs	r0, #32
 228 008e FFF7FEFF 		bl	write_cmd_oled
 229              	.LVL31:
  71:Core/Src/oled.c ****   //Charge pump
  72:Core/Src/oled.c ****   write_cmd_oled(0x8D);
 230              		.loc 1 72 0
 231 0092 8D20     		movs	r0, #141
 232 0094 FFF7FEFF 		bl	write_cmd_oled
 233              	.LVL32:
  73:Core/Src/oled.c ****   write_cmd_oled(0x14);
 234              		.loc 1 73 0
 235 0098 1420     		movs	r0, #20
 236 009a FFF7FEFF 		bl	write_cmd_oled
 237              	.LVL33:
  74:Core/Src/oled.c ****   write_cmd_oled(turn_on);
 238              		.loc 1 74 0
 239 009e AF20     		movs	r0, #175
 240 00a0 FFF7FEFF 		bl	write_cmd_oled
 241              	.LVL34:
 242 00a4 08BD     		pop	{r3, pc}
 243              		.cfi_endproc
 244              	.LFE67:
 246              		.text
 247              	.Letext0:
 248              		.file 2 "/usr/include/newlib/machine/_default_types.h"
 249              		.file 3 "/usr/include/newlib/sys/_stdint.h"
 250              		.file 4 "Drivers/CMSIS/Include/core_cm3.h"
 251              		.file 5 "Drivers/CMSIS/Device/ST/STM32F1xx/Include/system_stm32f1xx.h"
 252              		.file 6 "Drivers/CMSIS/Device/ST/STM32F1xx/Include/stm32f103xb.h"
 253              		.file 7 "/usr/lib/gcc/arm-none-eabi/6.3.1/include/stddef.h"
 254              		.file 8 "Drivers/STM32F1xx_HAL_Driver/Inc/stm32f1xx_hal_def.h"
 255              		.file 9 "Drivers/STM32F1xx_HAL_Driver/Inc/stm32f1xx_hal_dma.h"
 256              		.file 10 "Drivers/STM32F1xx_HAL_Driver/Inc/stm32f1xx_hal_i2c.h"
 257              		.file 11 "Drivers/STM32F1xx_HAL_Driver/Inc/stm32f1xx_hal.h"
 258              		.file 12 "Core/Inc/oled.h"
ARM GAS  /tmp/ccpJ3D2E.s 			page 7

